(lp0
cnumpy.core.multiarray
scalar
p1
(cnumpy
dtype
p2
(S'f8'
p3
I0
I1
tp4
Rp5
(I3
S'<'
p6
NNNI-1
I-1
I0
tp7
bS'\xe5!\x9ea}qj?'
p8
tp9
Rp10
ag1
(g5
S'x\xf8\xf7[\xf2Yf?'
p11
tp12
Rp13
ag1
(g5
S')\xa6\x07i\x17,^?'
p14
tp15
Rp16
ag1
(g5
S'\xf5\x91\x18\xc8\xaf\xe9U?'
p17
tp18
Rp19
ag1
(g5
S'\x15B\x95\x91\xdd\r9?'
p20
tp21
Rp22
ag1
(g5
S'Al~s\x0b\xd9e?'
p23
tp24
Rp25
ag1
(g5
S'J\x8fy7\xaf\x14a?'
p26
tp27
Rp28
ag1
(g5
S'mL\x8b\xc1i\x0eh?'
p29
tp30
Rp31
a.