(lp0
cnumpy.core.multiarray
scalar
p1
(cnumpy
dtype
p2
(S'f8'
p3
I0
I1
tp4
Rp5
(I3
S'<'
p6
NNNI-1
I-1
I0
tp7
bS'\x14x\xf7\xb6o>\x86?'
p8
tp9
Rp10
ag1
(g5
S'O\x0c\x8f\xcd\xa6>\x8a?'
p11
tp12
Rp13
ag1
(g5
S'\x7f\x92\r)\n\xb3~?'
p14
tp15
Rp16
ag1
(g5
S'S\xad\xfb\xda \xe8p?'
p17
tp18
Rp19
ag1
(g5
S'\x10\xb0pUl\xa1]?'
p20
tp21
Rp22
ag1
(g5
S'\x84|l\xa6,c\x85?'
p23
tp24
Rp25
ag1
(g5
S'\xed\x04^S\xfbL\x81?'
p26
tp27
Rp28
ag1
(g5
S'$%5\x0eC\xec|?'
p29
tp30
Rp31
a.