(lp0
cnumpy.core.multiarray
scalar
p1
(cnumpy
dtype
p2
(S'f8'
p3
I0
I1
tp4
Rp5
(I3
S'<'
p6
NNNI-1
I-1
I0
tp7
bS'M\x13\xe9%\x87JU?'
p8
tp9
Rp10
ag1
(g5
S'\xd6p\x14X\xe6:c?'
p11
tp12
Rp13
ag1
(g5
S'-\xb5|\x01\xe7\x07D?'
p14
tp15
Rp16
ag1
(g5
S'\xe65F |fO?'
p17
tp18
Rp19
ag1
(g5
S'\xb0Q\x0f\xa8M N?'
p20
tp21
Rp22
ag1
(g5
S'\xa1\xaf\x9fU"\xa9M?'
p23
tp24
Rp25
ag1
(g5
S'\x8c\x1d<\x84\x18\\G?'
p26
tp27
Rp28
ag1
(g5
S'\x98\xbc\x8b\xdd\t\x81j?'
p29
tp30
Rp31
a.